target datalayout = "e-m:e-p270:32:32-p271:32:32-p272:64:64-i64:64-i128:128-f80:128-n8:16:32:64-S128"
target triple = "x86_64-pc-linux-gnu"

%struct._zval_struct = type { %union._zend_value, %union.anon.9, %union.anon.12 }
%union._zend_value = type { i64 }
%union.anon.9 = type { i32 }
%union.anon.12 = type { i32 }
%union._zend_function = type { %struct._zend_op_array }
%struct._zend_op_array = type { i8, [3 x i8], i32, ptr, ptr, ptr, i32, i32, ptr, ptr, ptr, ptr, i32, ptr, i32, i32, i32, ptr, ptr, ptr, ptr, ptr, i32, i32, ptr, ptr, ptr, i32, i32, i32, i32, ptr, ptr, [6 x ptr] }
%struct.variance_obligation = type { i32, %union.anon.14 }
%union.anon.14 = type { %struct.anon.15 }
%struct.anon.15 = type { %union._zend_function, %union._zend_function, ptr, ptr }
%struct.anon.16 = type { ptr, ptr, i32 }

; Function Attrs: alwaysinline nounwind uwtable
define internal ptr @zend_hash_next_index_insert_ptr(ptr noundef %0, ptr noundef %1) #3 {
  %3 = alloca ptr, align 8
  %4 = alloca ptr, align 8
  %5 = alloca ptr, align 8
  %6 = alloca %struct._zval_struct, align 8
  %7 = alloca ptr, align 8
  %8 = alloca i32, align 4
  store ptr %0, ptr %4, align 8, !tbaa !47
  store ptr %1, ptr %5, align 8, !tbaa !16
  call void @llvm.lifetime.start.p0(i64 16, ptr %6) #19
  call void @llvm.lifetime.start.p0(i64 8, ptr %7) #19
  br label %9

9:                                                ; preds = %2
  %10 = load ptr, ptr %5, align 8, !tbaa !16
  %11 = getelementptr inbounds nuw %struct._zval_struct, ptr %6, i32 0, i32 0
  store ptr %10, ptr %11, align 8, !tbaa !46
  %12 = getelementptr inbounds nuw %struct._zval_struct, ptr %6, i32 0, i32 1
  store i32 13, ptr %12, align 8, !tbaa !46
  br label %13

13:                                               ; preds = %9
  br label %14

14:                                               ; preds = %13
  %15 = load ptr, ptr %4, align 8, !tbaa !47
  %16 = call ptr @zend_hash_next_index_insert(ptr noundef %15, ptr noundef %6)
  store ptr %16, ptr %7, align 8, !tbaa !51
  %17 = load ptr, ptr %7, align 8, !tbaa !51
  %18 = icmp ne ptr %17, null
  br i1 %18, label %19, label %27

19:                                               ; preds = %14
  %20 = load ptr, ptr %7, align 8, !tbaa !51
  %21 = getelementptr inbounds nuw %struct._zval_struct, ptr %20, i32 0, i32 0
  %22 = load ptr, ptr %21, align 8, !tbaa !46
  %23 = icmp ne ptr %22, null
  call void @llvm.assume(i1 %23)
  %24 = load ptr, ptr %7, align 8, !tbaa !51
  %25 = getelementptr inbounds nuw %struct._zval_struct, ptr %24, i32 0, i32 0
  %26 = load ptr, ptr %25, align 8, !tbaa !46
  store ptr %26, ptr %3, align 8
  store i32 1, ptr %8, align 4
  br label %28

27:                                               ; preds = %14
  store ptr null, ptr %3, align 8
  store i32 1, ptr %8, align 4
  br label %28

28:                                               ; preds = %27, %19
  call void @llvm.lifetime.end.p0(i64 8, ptr %7) #19
  call void @llvm.lifetime.end.p0(i64 16, ptr %6) #19
  %29 = load ptr, ptr %3, align 8
  ret ptr %29
}

; Function Attrs: nounwind uwtable
define internal void @add_property_compatibility_obligation(ptr noundef %0, ptr noundef %1, ptr noundef %2, i32 noundef %3) #0 {
  %5 = alloca ptr, align 8
  %6 = alloca ptr, align 8
  %7 = alloca ptr, align 8
  %8 = alloca i32, align 4
  %9 = alloca ptr, align 8
  %10 = alloca ptr, align 8
  store ptr %0, ptr %5, align 8, !tbaa !8
  store ptr %1, ptr %6, align 8, !tbaa !52
  store ptr %2, ptr %7, align 8, !tbaa !52
  store i32 %3, ptr %8, align 4, !tbaa !4
  call void @llvm.lifetime.start.p0(i64 8, ptr %9) #19
  %11 = load ptr, ptr %5, align 8, !tbaa !8
  %12 = call ptr @get_or_init_obligations_for_class(ptr noundef %11)
  store ptr %12, ptr %9, align 8, !tbaa !47
  call void @llvm.lifetime.start.p0(i64 8, ptr %10) #19
  %13 = call noalias ptr @_emalloc_640()
  store ptr %13, ptr %10, align 8, !tbaa !16
  %14 = load ptr, ptr %10, align 8, !tbaa !16
  %15 = getelementptr inbounds nuw %struct.variance_obligation, ptr %14, i32 0, i32 0
  store i32 2, ptr %15, align 8, !tbaa !17
  %16 = load ptr, ptr %6, align 8, !tbaa !52
  %17 = load ptr, ptr %10, align 8, !tbaa !16
  %18 = getelementptr inbounds nuw %struct.variance_obligation, ptr %17, i32 0, i32 1
  %19 = getelementptr inbounds nuw %struct.anon.16, ptr %18, i32 0, i32 1
  store ptr %16, ptr %19, align 8, !tbaa !46
  %20 = load ptr, ptr %7, align 8, !tbaa !52
  %21 = load ptr, ptr %10, align 8, !tbaa !16
  %22 = getelementptr inbounds nuw %struct.variance_obligation, ptr %21, i32 0, i32 1
  %23 = getelementptr inbounds nuw %struct.anon.16, ptr %22, i32 0, i32 0
  store ptr %20, ptr %23, align 8, !tbaa !46
  %24 = load i32, ptr %8, align 4, !tbaa !4
  %25 = load ptr, ptr %10, align 8, !tbaa !16
  %26 = getelementptr inbounds nuw %struct.variance_obligation, ptr %25, i32 0, i32 1
  %27 = getelementptr inbounds nuw %struct.anon.16, ptr %26, i32 0, i32 2
  store i32 %24, ptr %27, align 8, !tbaa !46
  %28 = load ptr, ptr %9, align 8, !tbaa !47
  %29 = load ptr, ptr %10, align 8, !tbaa !16
  %30 = call ptr @zend_hash_next_index_insert_ptr(ptr noundef %28, ptr noundef %29)
  call void @llvm.lifetime.end.p0(i64 8, ptr %10) #19
  call void @llvm.lifetime.end.p0(i64 8, ptr %9) #19
  ret void
}