; Function Attrs: nounwind uwtable
define internal fastcc void @add_property_compatibility_obligation(ptr noundef %0, ptr noundef %1, ptr noundef %2, i32 noundef range(i32 0, 3) %3) unnamed_addr #2 {
zend_hash_next_index_insert_ptr.exit:
  %4 = alloca %struct._zval_struct, align 8
  %5 = tail call fastcc ptr @get_or_init_obligations_for_class(ptr noundef %0)
  %6 = tail call noalias ptr @_emalloc_640() #17
  store i32 2, ptr %6, align 8, !tbaa !4
  %7 = getelementptr inbounds nuw i8, ptr %6, i64 8
  %8 = getelementptr inbounds nuw i8, ptr %6, i64 16
  store ptr %1, ptr %8, align 8, !tbaa !21
  store ptr %2, ptr %7, align 8, !tbaa !21
  %9 = getelementptr inbounds nuw i8, ptr %6, i64 24
  store i32 %3, ptr %9, align 8, !tbaa !21
  call void @llvm.lifetime.start.p0(i64 16, ptr nonnull %4) #17
  store ptr %6, ptr %4, align 8, !tbaa !21
  %10 = getelementptr inbounds nuw i8, ptr %4, i64 8
  store i32 13, ptr %10, align 8, !tbaa !21
  %11 = call ptr @zend_hash_next_index_insert(ptr noundef %5, ptr noundef nonnull %4) #17
  call void @llvm.lifetime.end.p0(i64 16, ptr nonnull %4) #17
  ret void
}